target datalayout = "e-m:e-p270:32:32-p271:32:32-p272:64:64-i64:64-i128:128-f80:128-n8:16:32:64-S128"
target triple = "x86_64-pc-linux-gnu"

%struct.dt_gui_themetweak_widgets_t = type { ptr, ptr, ptr }

@.str.56 = private unnamed_addr constant [14 x i8] c"ui_last/theme\00", align 1

; Function Attrs: nounwind uwtable
define internal void @reload_ui_last_theme() #0 {
  %1 = alloca ptr, align 8
  call void @llvm.lifetime.start.p0(i64 8, ptr %1) #10
  %2 = call ptr @dt_conf_get_string_const(ptr noundef @.str.56)
  store ptr %2, ptr %1, align 8, !tbaa !73
  %3 = load ptr, ptr %1, align 8, !tbaa !73
  call void @dt_gui_load_theme(ptr noundef %3)
  call void (...) @dt_bauhaus_load_theme()
  call void @llvm.lifetime.end.p0(i64 8, ptr %1) #10
  ret void
}

; Function Attrs: nounwind uwtable
define internal void @save_usercss_callback(ptr noundef %0, ptr noundef %1) #0 {
  %3 = alloca ptr, align 8
  %4 = alloca ptr, align 8
  %5 = alloca ptr, align 8
  %6 = alloca ptr, align 8
  store ptr %0, ptr %3, align 8, !tbaa !6
  store ptr %1, ptr %4, align 8, !tbaa !61
  call void @llvm.lifetime.start.p0(i64 8, ptr %5) #10
  %7 = load ptr, ptr %4, align 8, !tbaa !61
  store ptr %7, ptr %5, align 8, !tbaa !78
  call void @llvm.lifetime.start.p0(i64 8, ptr %6) #10
  %8 = load ptr, ptr %5, align 8, !tbaa !78
  %9 = getelementptr inbounds nuw %struct.dt_gui_themetweak_widgets_t, ptr %8, i32 0, i32 2
  %10 = load ptr, ptr %9, align 8, !tbaa !101
  %11 = call i64 @gtk_text_view_get_type() #11
  %12 = call ptr @g_type_check_instance_cast(ptr noundef %10, i64 noundef %11)
  %13 = call ptr @gtk_text_view_get_buffer(ptr noundef %12)
  store ptr %13, ptr %6, align 8, !tbaa !99
  %14 = load ptr, ptr %6, align 8, !tbaa !99
  call void @save_usercss(ptr noundef %14)
  %15 = load ptr, ptr %5, align 8, !tbaa !78
  %16 = getelementptr inbounds nuw %struct.dt_gui_themetweak_widgets_t, ptr %15, i32 0, i32 0
  %17 = load ptr, ptr %16, align 8, !tbaa !97
  %18 = call i64 @gtk_toggle_button_get_type() #11
  %19 = call ptr @g_type_check_instance_cast(ptr noundef %17, i64 noundef %18)
  %20 = call i32 @gtk_toggle_button_get_active(ptr noundef %19)
  %21 = icmp ne i32 %20, 0
  br i1 %21, label %22, label %23

22:                                               ; preds = %2
  call void @reload_ui_last_theme()
  br label %29

23:                                               ; preds = %2
  %24 = load ptr, ptr %5, align 8, !tbaa !78
  %25 = getelementptr inbounds nuw %struct.dt_gui_themetweak_widgets_t, ptr %24, i32 0, i32 0
  %26 = load ptr, ptr %25, align 8, !tbaa !97
  %27 = call i64 @gtk_toggle_button_get_type() #11
  %28 = call ptr @g_type_check_instance_cast(ptr noundef %26, i64 noundef %27)
  call void @gtk_toggle_button_set_active(ptr noundef %28, i32 noundef 1)
  br label %29

29:                                               ; preds = %23, %22
  call void @llvm.lifetime.end.p0(i64 8, ptr %6) #10
  call void @llvm.lifetime.end.p0(i64 8, ptr %5) #10
  ret void
}