; Function Attrs: nounwind uwtable
define internal void @save_usercss_callback(ptr readnone captures(none) %0, ptr noundef readonly captures(none) %1) #0 {
  %3 = getelementptr inbounds nuw i8, ptr %1, i64 16
  %4 = load ptr, ptr %3, align 8, !tbaa !73
  %5 = tail call i64 @gtk_text_view_get_type() #13
  %6 = tail call ptr @g_type_check_instance_cast(ptr noundef %4, i64 noundef %5) #12
  %7 = tail call ptr @gtk_text_view_get_buffer(ptr noundef %6) #12
  tail call fastcc void @save_usercss(ptr noundef %7)
  %8 = load ptr, ptr %1, align 8, !tbaa !71
  %9 = tail call i64 @gtk_toggle_button_get_type() #13
  %10 = tail call ptr @g_type_check_instance_cast(ptr noundef %8, i64 noundef %9) #12
  %11 = tail call i32 @gtk_toggle_button_get_active(ptr noundef %10) #12
  %.not = icmp eq i32 %11, 0
  br i1 %.not, label %14, label %12

12:                                               ; preds = %2
  %13 = tail call ptr @dt_conf_get_string_const(ptr noundef nonnull @.str.56) #12
  tail call void @dt_gui_load_theme(ptr noundef %13) #12
  tail call void (...) @dt_bauhaus_load_theme() #12
  br label %17

14:                                               ; preds = %2
  %15 = load ptr, ptr %1, align 8, !tbaa !71
  %16 = tail call ptr @g_type_check_instance_cast(ptr noundef %15, i64 noundef %9) #12
  tail call void @gtk_toggle_button_set_active(ptr noundef %16, i32 noundef 1) #12
  br label %17

17:                                               ; preds = %14, %12
  ret void
}